target datalayout = "e-m:e-p270:32:32-p271:32:32-p272:64:64-i64:64-i128:128-f80:128-n8:16:32:64-S128"
target triple = "x86_64-pc-linux-gnu"

@.str.14 = private unnamed_addr constant [35 x i8] c"../openssl/test/prov_config_test.c\00", align 1
@configfile = internal global ptr null, align 8
@.str.22 = private unnamed_addr constant [4 x i8] c"ctx\00", align 1
@.str.24 = private unnamed_addr constant [42 x i8] c"OSSL_LIB_CTX_load_config(ctx, configfile)\00", align 1
@.str.25 = private unnamed_addr constant [9 x i8] c"SHA2-256\00", align 1
@.str.26 = private unnamed_addr constant [7 x i8] c"sha256\00", align 1

; Function Attrs: nounwind uwtable
define internal i32 @test_double_config() #0 {
  %1 = alloca i32, align 4
  %2 = alloca ptr, align 8
  %3 = alloca i32, align 4
  %4 = alloca ptr, align 8
  %5 = alloca i32, align 4
  call void @llvm.lifetime.start.p0(i64 8, ptr %2) #6
  %6 = call ptr @OSSL_LIB_CTX_new()
  store ptr %6, ptr %2, align 8, !tbaa !9
  call void @llvm.lifetime.start.p0(i64 4, ptr %3) #6
  store i32 0, ptr %3, align 4, !tbaa !11
  call void @llvm.lifetime.start.p0(i64 8, ptr %4) #6
  store ptr null, ptr %4, align 8, !tbaa !15
  %7 = load ptr, ptr %2, align 8, !tbaa !9
  %8 = call i32 @test_ptr(ptr noundef @.str.14, i32 noundef 29, ptr noundef @.str.22, ptr noundef %7)
  %9 = icmp ne i32 %8, 0
  br i1 %9, label %11, label %10

10:                                               ; preds = %0
  store i32 0, ptr %1, align 4
  store i32 1, ptr %5, align 4
  br label %41

11:                                               ; preds = %0
  %12 = load ptr, ptr %2, align 8, !tbaa !9
  %13 = load ptr, ptr @configfile, align 8, !tbaa !4
  %14 = call i32 @OSSL_LIB_CTX_load_config(ptr noundef %12, ptr noundef %13)
  %15 = icmp ne i32 %14, 0
  %16 = zext i1 %15 to i32
  %17 = call i32 @test_true(ptr noundef @.str.14, i32 noundef 32, ptr noundef @.str.24, i32 noundef %16)
  %18 = icmp ne i32 %17, 0
  br i1 %18, label %20, label %19

19:                                               ; preds = %11
  br label %37

20:                                               ; preds = %11
  %21 = load ptr, ptr %2, align 8, !tbaa !9
  %22 = load ptr, ptr @configfile, align 8, !tbaa !4
  %23 = call i32 @OSSL_LIB_CTX_load_config(ptr noundef %21, ptr noundef %22)
  %24 = icmp ne i32 %23, 0
  %25 = zext i1 %24 to i32
  %26 = call i32 @test_true(ptr noundef @.str.14, i32 noundef 34, ptr noundef @.str.24, i32 noundef %25)
  %27 = icmp ne i32 %26, 0
  br i1 %27, label %29, label %28

28:                                               ; preds = %20
  br label %37

29:                                               ; preds = %20
  %30 = load ptr, ptr %2, align 8, !tbaa !9
  %31 = call ptr @EVP_MD_fetch(ptr noundef %30, ptr noundef @.str.25, ptr noundef null)
  store ptr %31, ptr %4, align 8, !tbaa !15
  %32 = load ptr, ptr %4, align 8, !tbaa !15
  %33 = call i32 @test_ptr(ptr noundef @.str.14, i32 noundef 39, ptr noundef @.str.26, ptr noundef %32)
  %34 = icmp ne i32 %33, 0
  br i1 %34, label %36, label %35

35:                                               ; preds = %29
  br label %37

36:                                               ; preds = %29
  store i32 1, ptr %3, align 4, !tbaa !11
  br label %37

37:                                               ; preds = %36, %35, %28, %19
  %38 = load ptr, ptr %4, align 8, !tbaa !15
  call void @EVP_MD_free(ptr noundef %38)
  %39 = load ptr, ptr %2, align 8, !tbaa !9
  call void @OSSL_LIB_CTX_free(ptr noundef %39)
  %40 = load i32, ptr %3, align 4, !tbaa !11
  store i32 %40, ptr %1, align 4
  store i32 1, ptr %5, align 4
  br label %41

41:                                               ; preds = %37, %10
  call void @llvm.lifetime.end.p0(i64 8, ptr %4) #6
  call void @llvm.lifetime.end.p0(i64 4, ptr %3) #6
  call void @llvm.lifetime.end.p0(i64 8, ptr %2) #6
  %42 = load i32, ptr %1, align 4
  ret i32 %42
}