; Function Attrs: nounwind uwtable
define internal range(i32 0, 2) i32 @test_double_config() #1 {
  %1 = tail call ptr @OSSL_LIB_CTX_new() #9
  %2 = tail call i32 @test_ptr(ptr noundef nonnull @.str.14, i32 noundef 29, ptr noundef nonnull @.str.22, ptr noundef %1) #9
  %.not = icmp eq i32 %2, 0
  br i1 %.not, label %19, label %3

3:                                                ; preds = %0
  %4 = load ptr, ptr @configfile, align 8, !tbaa !4
  %5 = tail call i32 @OSSL_LIB_CTX_load_config(ptr noundef %1, ptr noundef %4) #9
  %6 = icmp ne i32 %5, 0
  %7 = zext i1 %6 to i32
  %8 = tail call i32 @test_true(ptr noundef nonnull @.str.14, i32 noundef 32, ptr noundef nonnull @.str.24, i32 noundef %7) #9
  %.not10 = icmp eq i32 %8, 0
  br i1 %.not10, label %18, label %9

9:                                                ; preds = %3
  %10 = load ptr, ptr @configfile, align 8, !tbaa !4
  %11 = tail call i32 @OSSL_LIB_CTX_load_config(ptr noundef %1, ptr noundef %10) #9
  %12 = icmp ne i32 %11, 0
  %13 = zext i1 %12 to i32
  %14 = tail call i32 @test_true(ptr noundef nonnull @.str.14, i32 noundef 34, ptr noundef nonnull @.str.24, i32 noundef %13) #9
  %.not11 = icmp eq i32 %14, 0
  br i1 %.not11, label %18, label %15

15:                                               ; preds = %9
  %16 = tail call ptr @EVP_MD_fetch(ptr noundef %1, ptr noundef nonnull @.str.25, ptr noundef null) #9
  %17 = tail call i32 @test_ptr(ptr noundef nonnull @.str.14, i32 noundef 39, ptr noundef nonnull @.str.26, ptr noundef %16) #9
  %.not12 = icmp ne i32 %17, 0
  %spec.select = zext i1 %.not12 to i32
  br label %18

18:                                               ; preds = %15, %9, %3
  %.08 = phi i32 [ 0, %9 ], [ 0, %3 ], [ %spec.select, %15 ]
  %.0 = phi ptr [ null, %9 ], [ null, %3 ], [ %16, %15 ]
  tail call void @EVP_MD_free(ptr noundef %.0) #9
  tail call void @OSSL_LIB_CTX_free(ptr noundef %1) #9
  br label %19

19:                                               ; preds = %0, %18
  %.09 = phi i32 [ %.08, %18 ], [ 0, %0 ]
  ret i32 %.09
}